target datalayout = "e-m:e-p270:32:32-p271:32:32-p272:64:64-i64:64-i128:128-f80:128-n8:16:32:64-S128"
target triple = "x86_64-pc-linux-gnu"

%struct.ltlNode_t = type { i32, ptr, ptr, ptr, ptr }

@.str.23 = private unnamed_addr constant [49 x i8] c"\0AUNSUPPORTED LTL NODE TYPE:: Aborting execution\0A\00", align 1
@.str.24 = private unnamed_addr constant [43 x i8] c"\0Afaulting PODMANDYO topASTNode->name = %s\0A\00", align 1

; Function Attrs: nounwind uwtable
define i32 @checkAllBoolHaveAIGPointer(ptr noundef %0) #0 {
  %2 = alloca i32, align 4
  %3 = alloca ptr, align 8
  store ptr %0, ptr %3, align 8, !tbaa !7
  %4 = load ptr, ptr %3, align 8, !tbaa !7
  %5 = getelementptr inbounds nuw %struct.ltlNode_t, ptr %4, i32 0, i32 0
  %6 = load i32, ptr %5, align 8, !tbaa !10
  switch i32 %6, label %38 [
    i32 8, label %7
    i32 0, label %18
    i32 1, label %18
    i32 3, label %18
    i32 7, label %18
    i32 2, label %33
    i32 6, label %33
    i32 4, label %33
    i32 5, label %33
  ]

7:                                                ; preds = %1
  %8 = load ptr, ptr %3, align 8, !tbaa !7
  %9 = getelementptr inbounds nuw %struct.ltlNode_t, ptr %8, i32 0, i32 2
  %10 = load ptr, ptr %9, align 8, !tbaa !14
  %11 = icmp ne ptr %10, null
  br i1 %11, label %12, label %13

12:                                               ; preds = %7
  store i32 1, ptr %2, align 4
  br label %40

13:                                               ; preds = %7
  %14 = load ptr, ptr %3, align 8, !tbaa !7
  %15 = getelementptr inbounds nuw %struct.ltlNode_t, ptr %14, i32 0, i32 1
  %16 = load ptr, ptr %15, align 8, !tbaa !15
  %17 = call i32 (ptr, ...) @printf(ptr noundef @.str.24, ptr noundef %16)
  store i32 0, ptr %2, align 4
  br label %40

18:                                               ; preds = %1, %1, %1, %1
  %19 = load ptr, ptr %3, align 8, !tbaa !7
  %20 = getelementptr inbounds nuw %struct.ltlNode_t, ptr %19, i32 0, i32 3
  %21 = load ptr, ptr %20, align 8, !tbaa !16
  %22 = call i32 @checkAllBoolHaveAIGPointer(ptr noundef %21)
  %23 = icmp ne i32 %22, 0
  br i1 %23, label %24, label %30

24:                                               ; preds = %18
  %25 = load ptr, ptr %3, align 8, !tbaa !7
  %26 = getelementptr inbounds nuw %struct.ltlNode_t, ptr %25, i32 0, i32 4
  %27 = load ptr, ptr %26, align 8, !tbaa !17
  %28 = call i32 @checkAllBoolHaveAIGPointer(ptr noundef %27)
  %29 = icmp ne i32 %28, 0
  br label %30

30:                                               ; preds = %24, %18
  %31 = phi i1 [ false, %18 ], [ %29, %24 ]
  %32 = zext i1 %31 to i32
  store i32 %32, ptr %2, align 4
  br label %40

33:                                               ; preds = %1, %1, %1, %1
  %34 = load ptr, ptr %3, align 8, !tbaa !7
  %35 = getelementptr inbounds nuw %struct.ltlNode_t, ptr %34, i32 0, i32 3
  %36 = load ptr, ptr %35, align 8, !tbaa !16
  %37 = call i32 @checkAllBoolHaveAIGPointer(ptr noundef %36)
  store i32 %37, ptr %2, align 4
  br label %40

38:                                               ; preds = %1
  %39 = call i32 (ptr, ...) @printf(ptr noundef @.str.23)
  call void @exit(i32 noundef 0) #12
  unreachable

40:                                               ; preds = %33, %30, %13, %12
  %41 = load i32, ptr %2, align 4
  ret i32 %41
}