; Function Attrs: nofree nounwind uwtable
define range(i32 0, 2) i32 @checkAllBoolHaveAIGPointer(ptr noundef readonly captures(none) %0) local_unnamed_addr #5 {
  br label %tailrecurse

tailrecurse:                                      ; preds = %tailrecurse.backedge, %1
  %.tr = phi ptr [ %0, %1 ], [ %.tr.be, %tailrecurse.backedge ]
  %2 = load i32, ptr %.tr, align 8, !tbaa !3
  switch i32 %2, label %15 [
    i32 8, label %3
    i32 0, label %10
    i32 1, label %10
    i32 3, label %10
    i32 7, label %10
    i32 2, label %tailrecurse.backedge
    i32 6, label %tailrecurse.backedge
    i32 4, label %tailrecurse.backedge
    i32 5, label %tailrecurse.backedge
  ]

3:                                                ; preds = %tailrecurse
  %4 = getelementptr inbounds nuw i8, ptr %.tr, i64 16
  %5 = load ptr, ptr %4, align 8, !tbaa !51
  %.not6 = icmp eq ptr %5, null
  br i1 %.not6, label %6, label %.loopexit

6:                                                ; preds = %3
  %7 = getelementptr inbounds nuw i8, ptr %.tr, i64 8
  %8 = load ptr, ptr %7, align 8, !tbaa !47
  %9 = tail call i32 (ptr, ...) @printf(ptr noundef nonnull dereferenceable(1) @.str.24, ptr noundef %8)
  br label %.loopexit

10:                                               ; preds = %tailrecurse, %tailrecurse, %tailrecurse, %tailrecurse
  %11 = getelementptr inbounds nuw i8, ptr %.tr, i64 24
  %12 = load ptr, ptr %11, align 8, !tbaa !46
  %13 = tail call i32 @checkAllBoolHaveAIGPointer(ptr noundef %12)
  %.not = icmp eq i32 %13, 0
  br i1 %.not, label %.loopexit, label %tailrecurse.backedge

tailrecurse.backedge:                             ; preds = %10, %tailrecurse, %tailrecurse, %tailrecurse, %tailrecurse
  %.sink = phi i64 [ 24, %tailrecurse ], [ 24, %tailrecurse ], [ 24, %tailrecurse ], [ 24, %tailrecurse ], [ 32, %10 ]
  %14 = getelementptr inbounds nuw i8, ptr %.tr, i64 %.sink
  %.tr.be = load ptr, ptr %14, align 8, !tbaa !50
  br label %tailrecurse

15:                                               ; preds = %tailrecurse
  %puts = tail call i32 @puts(ptr nonnull dereferenceable(1) @str.9)
  tail call void @exit(i32 noundef 0) #26
  unreachable

.loopexit:                                        ; preds = %10, %3, %6
  %.0 = phi i32 [ 0, %6 ], [ 1, %3 ], [ 0, %10 ]
  ret i32 %.0
}